; Function Attrs: mustprogress uwtable
define void @_ZN2cv7quality14QualityBRISQUE7computeERKNS_11_InputArrayERKNSt7__cxx1112basic_stringIcSt11char_traitsIcESaIcEEESC_(ptr dead_on_unwind noalias writable writeonly sret(%"class.cv::Scalar_") align 8 captures(none) %0, ptr noundef nonnull align 8 dereferenceable(24) %1, ptr noundef nonnull align 8 dereferenceable(32) %2, ptr noundef nonnull align 8 dereferenceable(32) %3) local_unnamed_addr #3 align 2 personality ptr @__gxx_personality_v0 {
  %5 = alloca %"class.cv::quality::QualityBRISQUE", align 8
  call void @llvm.lifetime.start.p0(i64 200, ptr nonnull %5) #25
  call void @_ZN2cv7quality14QualityBRISQUEC1ERKNSt7__cxx1112basic_stringIcSt11char_traitsIcESaIcEEES9_(ptr noundef nonnull align 8 dereferenceable(200) %5, ptr noundef nonnull align 8 dereferenceable(32) %2, ptr noundef nonnull align 8 dereferenceable(32) %3)
  invoke void @_ZN2cv7quality14QualityBRISQUE7computeERKNS_11_InputArrayE(ptr dead_on_unwind writable sret(%"class.cv::Scalar_") align 8 %0, ptr noundef nonnull align 8 dereferenceable(200) %5, ptr noundef nonnull align 8 dereferenceable(24) %1)
          to label %6 unwind label %32

6:                                                ; preds = %4
  store ptr getelementptr inbounds nuw inrange(-80, 80) (i8, ptr @_ZTVN2cv7quality14QualityBRISQUEE, i64 80), ptr %5, align 8, !tbaa !12
  %7 = getelementptr inbounds nuw i8, ptr %5, i64 104
  call void @_ZN2cv3MatD1Ev(ptr noundef nonnull align 8 dereferenceable(96) %7) #25
  %8 = getelementptr inbounds nuw i8, ptr %5, i64 96
  %9 = load ptr, ptr %8, align 8, !tbaa !11
  %.not.i.i.i.i = icmp eq ptr %9, null
  br i1 %.not.i.i.i.i, label %_ZN2cv7quality14QualityBRISQUED1Ev.exit, label %10

10:                                               ; preds = %6
  %11 = getelementptr inbounds nuw i8, ptr %9, i64 8
  %12 = load atomic i64, ptr %11 acquire, align 8
  %13 = icmp eq i64 %12, 4294967297
  %14 = trunc i64 %12 to i32
  br i1 %13, label %15, label %23

15:                                               ; preds = %10
  store i32 0, ptr %11, align 8, !tbaa !14
  %16 = getelementptr inbounds nuw i8, ptr %9, i64 12
  store i32 0, ptr %16, align 4, !tbaa !17
  %17 = load ptr, ptr %9, align 8, !tbaa !12
  %18 = getelementptr inbounds nuw i8, ptr %17, i64 16
  %19 = load ptr, ptr %18, align 8
  call void %19(ptr noundef nonnull align 8 dereferenceable(16) %9) #25
  %20 = load ptr, ptr %9, align 8, !tbaa !12
  %21 = getelementptr inbounds nuw i8, ptr %20, i64 24
  %22 = load ptr, ptr %21, align 8
  call void %22(ptr noundef nonnull align 8 dereferenceable(16) %9) #25
  br label %_ZN2cv7quality14QualityBRISQUED1Ev.exit

23:                                               ; preds = %10
  %24 = load i8, ptr @__libc_single_threaded, align 1, !tbaa !26
  %.not.i.i.i.i.i = icmp eq i8 %24, 0
  br i1 %.not.i.i.i.i.i, label %27, label %25

25:                                               ; preds = %23
  %26 = add nsw i32 %14, -1
  store i32 %26, ptr %11, align 4, !tbaa !28
  br label %_ZN9__gnu_cxx27__exchange_and_add_dispatchEPii.exit.i.i.i.i.i

27:                                               ; preds = %23
  %28 = atomicrmw volatile add ptr %11, i32 -1 acq_rel, align 4
  br label %_ZN9__gnu_cxx27__exchange_and_add_dispatchEPii.exit.i.i.i.i.i

_ZN9__gnu_cxx27__exchange_and_add_dispatchEPii.exit.i.i.i.i.i: ; preds = %27, %25
  %.0.i.i.i.i.i.i = phi i32 [ %14, %25 ], [ %28, %27 ]
  %29 = icmp eq i32 %.0.i.i.i.i.i.i, 1
  br i1 %29, label %30, label %_ZN2cv7quality14QualityBRISQUED1Ev.exit, !prof !29

30:                                               ; preds = %_ZN9__gnu_cxx27__exchange_and_add_dispatchEPii.exit.i.i.i.i.i
  call void @_ZNSt16_Sp_counted_baseILN9__gnu_cxx12_Lock_policyE2EE24_M_release_last_use_coldEv(ptr noundef nonnull align 8 dereferenceable(16) %9) #25
  br label %_ZN2cv7quality14QualityBRISQUED1Ev.exit

_ZN2cv7quality14QualityBRISQUED1Ev.exit:          ; preds = %6, %15, %_ZN9__gnu_cxx27__exchange_and_add_dispatchEPii.exit.i.i.i.i.i, %30
  store ptr getelementptr inbounds nuw inrange(-80, 80) (i8, ptr @_ZTCN2cv7quality14QualityBRISQUEE0_NS0_11QualityBaseE, i64 80), ptr %5, align 8, !tbaa !12
  %31 = getelementptr inbounds nuw i8, ptr %5, i64 8
  call void @_ZN2cv4UMatD1Ev(ptr noundef nonnull align 8 dereferenceable(80) %31) #25
  call void @_ZN2cv9AlgorithmD2Ev(ptr noundef nonnull align 8 dereferenceable(200) %5) #25
  call void @llvm.lifetime.end.p0(i64 200, ptr nonnull %5) #25
  ret void

32:                                               ; preds = %4
  %33 = landingpad { ptr, i32 }
          cleanup
  call void @_ZN2cv7quality14QualityBRISQUED1Ev(ptr noundef nonnull align 8 dereferenceable(200) %5) #25
  call void @llvm.lifetime.end.p0(i64 200, ptr nonnull %5) #25
  resume { ptr, i32 } %33
}